; Function Attrs: nounwind uwtable
define internal range(i32 0, 2) i32 @test_j(i32 noundef %0) #1 {
  %2 = alloca [80 x i8], align 16
  %3 = sext i32 %0 to i64
  %4 = getelementptr inbounds [4 x %struct.j_data_st], ptr @jf_data, i64 0, i64 %3
  call void @llvm.lifetime.start.p0(i64 80, ptr nonnull %2) #9
  %5 = getelementptr inbounds nuw i8, ptr %4, i64 8
  %6 = load ptr, ptr %5, align 8, !tbaa !19
  %7 = load i64, ptr %4, align 8, !tbaa !21
  %8 = call i32 (ptr, i64, ptr, ...) @BIO_snprintf(ptr noundef nonnull %2, i64 noundef 79, ptr noundef %6, i64 noundef %7) #9
  %9 = getelementptr inbounds nuw i8, ptr %4, i64 16
  %10 = load ptr, ptr %9, align 8, !tbaa !22
  %11 = call i32 @test_str_eq(ptr noundef nonnull @.str.23, i32 noundef 164, ptr noundef nonnull @.str.277, ptr noundef nonnull @.str.278, ptr noundef nonnull %2, ptr noundef %10) #9
  %.not = icmp ne i32 %11, 0
  %. = zext i1 %.not to i32
  call void @llvm.lifetime.end.p0(i64 80, ptr nonnull %2) #9
  ret i32 %.
}